; Function Attrs: nounwind uwtable
define range(i32 0, 2) i32 @Gia_ManSpeedupObj_rec(ptr noundef %0, ptr noundef %1, ptr noundef %2) local_unnamed_addr #4 {
  %4 = getelementptr inbounds nuw i8, ptr %0, i64 616
  %5 = load ptr, ptr %4, align 8, !tbaa !70
  %6 = getelementptr i8, ptr %0, i64 32
  %.val.i = load ptr, ptr %6, align 8, !tbaa !41
  %7 = ptrtoint ptr %1 to i64
  %8 = ptrtoint ptr %.val.i to i64
  %9 = sub i64 %7, %8
  %10 = sdiv exact i64 %9, 12
  %sext.i = shl i64 %10, 32
  %11 = ashr exact i64 %sext.i, 30
  %12 = getelementptr inbounds i8, ptr %5, i64 %11
  %13 = load i32, ptr %12, align 4, !tbaa !29
  %14 = getelementptr inbounds nuw i8, ptr %0, i64 176
  %15 = load i32, ptr %14, align 8, !tbaa !71
  %.not = icmp eq i32 %13, %15
  br i1 %.not, label %66, label %16

16:                                               ; preds = %3
  store i32 %15, ptr %12, align 4, !tbaa !29
  %.val = load i64, ptr %1, align 4
  %17 = and i64 %.val, 2684354559
  %narrow.i.not = icmp eq i64 %17, 2684354559
  br i1 %narrow.i.not, label %66, label %18

18:                                               ; preds = %16
  %19 = and i64 %.val, 536870911
  %20 = sub nsw i64 0, %19
  %21 = getelementptr inbounds %struct.Gia_Obj_t_, ptr %1, i64 %20
  %22 = tail call i32 @Gia_ManSpeedupObj_rec(ptr noundef nonnull %0, ptr noundef nonnull %21, ptr noundef %2)
  %.not15 = icmp eq i32 %22, 0
  br i1 %.not15, label %66, label %23

23:                                               ; preds = %18
  %24 = load i64, ptr %1, align 4
  %25 = lshr i64 %24, 32
  %26 = and i64 %25, 536870911
  %27 = sub nsw i64 0, %26
  %28 = getelementptr inbounds %struct.Gia_Obj_t_, ptr %1, i64 %27
  %29 = tail call i32 @Gia_ManSpeedupObj_rec(ptr noundef nonnull %0, ptr noundef nonnull %28, ptr noundef %2)
  %.not16 = icmp eq i32 %29, 0
  br i1 %.not16, label %66, label %30

30:                                               ; preds = %23
  %.val17 = load ptr, ptr %6, align 8, !tbaa !41
  %31 = ptrtoint ptr %.val17 to i64
  %32 = sub i64 %7, %31
  %33 = sdiv exact i64 %32, 12
  %34 = trunc i64 %33 to i32
  %35 = getelementptr inbounds nuw i8, ptr %2, i64 4
  %36 = load i32, ptr %35, align 4, !tbaa !60
  %37 = load i32, ptr %2, align 8, !tbaa !72
  %38 = icmp eq i32 %36, %37
  br i1 %38, label %39, label %.Vec_IntGrow.exit10_crit_edge.i

.Vec_IntGrow.exit10_crit_edge.i:                  ; preds = %30
  %.phi.trans.insert.i = getelementptr inbounds nuw i8, ptr %2, i64 8
  %.pre.i = load ptr, ptr %.phi.trans.insert.i, align 8, !tbaa !28
  br label %Vec_IntPush.exit

39:                                               ; preds = %30
  %40 = icmp slt i32 %36, 16
  br i1 %40, label %41, label %49

41:                                               ; preds = %39
  %42 = getelementptr inbounds nuw i8, ptr %2, i64 8
  %43 = load ptr, ptr %42, align 8, !tbaa !28
  %.not9.i.i = icmp eq ptr %43, null
  br i1 %.not9.i.i, label %46, label %44

44:                                               ; preds = %41
  %45 = tail call dereferenceable_or_null(64) ptr @realloc(ptr noundef nonnull %43, i64 noundef 64) #16
  br label %Vec_IntGrow.exit.i

46:                                               ; preds = %41
  %47 = tail call noalias dereferenceable_or_null(64) ptr @malloc(i64 noundef 64) #15
  br label %Vec_IntGrow.exit.i

Vec_IntGrow.exit.i:                               ; preds = %46, %44
  %48 = phi ptr [ %45, %44 ], [ %47, %46 ]
  store ptr %48, ptr %42, align 8, !tbaa !28
  store i32 16, ptr %2, align 8, !tbaa !72
  br label %Vec_IntPush.exit

49:                                               ; preds = %39
  %50 = shl nuw nsw i32 %36, 1
  %51 = getelementptr inbounds nuw i8, ptr %2, i64 8
  %52 = load ptr, ptr %51, align 8, !tbaa !28
  %.not9.i9.i = icmp eq ptr %52, null
  %53 = zext nneg i32 %50 to i64
  %54 = shl nuw nsw i64 %53, 2
  br i1 %.not9.i9.i, label %57, label %55

55:                                               ; preds = %49
  %56 = tail call ptr @realloc(ptr noundef nonnull %52, i64 noundef %54) #16
  br label %59

57:                                               ; preds = %49
  %58 = tail call noalias ptr @malloc(i64 noundef %54) #15
  br label %59

59:                                               ; preds = %57, %55
  %60 = phi ptr [ %56, %55 ], [ %58, %57 ]
  store ptr %60, ptr %51, align 8, !tbaa !28
  store i32 %50, ptr %2, align 8, !tbaa !72
  br label %Vec_IntPush.exit

Vec_IntPush.exit:                                 ; preds = %.Vec_IntGrow.exit10_crit_edge.i, %Vec_IntGrow.exit.i, %59
  %61 = phi ptr [ %.pre.i, %.Vec_IntGrow.exit10_crit_edge.i ], [ %60, %59 ], [ %48, %Vec_IntGrow.exit.i ]
  %62 = load i32, ptr %35, align 4, !tbaa !60
  %63 = add nsw i32 %62, 1
  store i32 %63, ptr %35, align 4, !tbaa !60
  %64 = sext i32 %62 to i64
  %65 = getelementptr inbounds i32, ptr %61, i64 %64
  store i32 %34, ptr %65, align 4, !tbaa !29
  br label %66

66:                                               ; preds = %23, %18, %16, %3, %Vec_IntPush.exit
  %.0 = phi i32 [ 1, %Vec_IntPush.exit ], [ 1, %3 ], [ 0, %16 ], [ 0, %18 ], [ 0, %23 ]
  ret i32 %.0
}